target datalayout = "e-m:e-p270:32:32-p271:32:32-p272:64:64-i64:64-i128:128-f80:128-n8:16:32:64-S128"
target triple = "x86_64-pc-linux-gnu"

%struct.PaUtilAllocationGroup = type { i64, ptr, ptr, ptr }
%struct.PaUtilAllocationGroupLink = type { ptr, ptr }

; Function Attrs: nounwind uwtable
define void @PaUtil_GroupFreeMemory(ptr noundef %0, ptr noundef %1) #0 {
  %3 = alloca ptr, align 8
  %4 = alloca ptr, align 8
  %5 = alloca ptr, align 8
  %6 = alloca ptr, align 8
  %7 = alloca i32, align 4
  store ptr %0, ptr %3, align 8, !tbaa !3
  store ptr %1, ptr %4, align 8, !tbaa !3
  call void @llvm.lifetime.start.p0(i64 8, ptr %5) #3
  %8 = load ptr, ptr %3, align 8, !tbaa !3
  %9 = getelementptr inbounds nuw %struct.PaUtilAllocationGroup, ptr %8, i32 0, i32 3
  %10 = load ptr, ptr %9, align 8, !tbaa !14
  store ptr %10, ptr %5, align 8, !tbaa !7
  call void @llvm.lifetime.start.p0(i64 8, ptr %6) #3
  store ptr null, ptr %6, align 8, !tbaa !7
  %11 = load ptr, ptr %4, align 8, !tbaa !3
  %12 = icmp eq ptr %11, null
  br i1 %12, label %13, label %14

13:                                               ; preds = %2
  store i32 1, ptr %7, align 4
  br label %57

14:                                               ; preds = %2
  br label %15

15:                                               ; preds = %50, %14
  %16 = load ptr, ptr %5, align 8, !tbaa !7
  %17 = icmp ne ptr %16, null
  br i1 %17, label %18, label %55

18:                                               ; preds = %15
  %19 = load ptr, ptr %5, align 8, !tbaa !7
  %20 = getelementptr inbounds nuw %struct.PaUtilAllocationGroupLink, ptr %19, i32 0, i32 1
  %21 = load ptr, ptr %20, align 8, !tbaa !16
  %22 = load ptr, ptr %4, align 8, !tbaa !3
  %23 = icmp eq ptr %21, %22
  br i1 %23, label %24, label %50

24:                                               ; preds = %18
  %25 = load ptr, ptr %6, align 8, !tbaa !7
  %26 = icmp ne ptr %25, null
  br i1 %26, label %27, label %33

27:                                               ; preds = %24
  %28 = load ptr, ptr %5, align 8, !tbaa !7
  %29 = getelementptr inbounds nuw %struct.PaUtilAllocationGroupLink, ptr %28, i32 0, i32 0
  %30 = load ptr, ptr %29, align 8, !tbaa !18
  %31 = load ptr, ptr %6, align 8, !tbaa !7
  %32 = getelementptr inbounds nuw %struct.PaUtilAllocationGroupLink, ptr %31, i32 0, i32 0
  store ptr %30, ptr %32, align 8, !tbaa !18
  br label %39

33:                                               ; preds = %24
  %34 = load ptr, ptr %5, align 8, !tbaa !7
  %35 = getelementptr inbounds nuw %struct.PaUtilAllocationGroupLink, ptr %34, i32 0, i32 0
  %36 = load ptr, ptr %35, align 8, !tbaa !18
  %37 = load ptr, ptr %3, align 8, !tbaa !3
  %38 = getelementptr inbounds nuw %struct.PaUtilAllocationGroup, ptr %37, i32 0, i32 3
  store ptr %36, ptr %38, align 8, !tbaa !14
  br label %39

39:                                               ; preds = %33, %27
  %40 = load ptr, ptr %5, align 8, !tbaa !7
  %41 = getelementptr inbounds nuw %struct.PaUtilAllocationGroupLink, ptr %40, i32 0, i32 1
  store ptr null, ptr %41, align 8, !tbaa !16
  %42 = load ptr, ptr %3, align 8, !tbaa !3
  %43 = getelementptr inbounds nuw %struct.PaUtilAllocationGroup, ptr %42, i32 0, i32 2
  %44 = load ptr, ptr %43, align 8, !tbaa !13
  %45 = load ptr, ptr %5, align 8, !tbaa !7
  %46 = getelementptr inbounds nuw %struct.PaUtilAllocationGroupLink, ptr %45, i32 0, i32 0
  store ptr %44, ptr %46, align 8, !tbaa !18
  %47 = load ptr, ptr %5, align 8, !tbaa !7
  %48 = load ptr, ptr %3, align 8, !tbaa !3
  %49 = getelementptr inbounds nuw %struct.PaUtilAllocationGroup, ptr %48, i32 0, i32 2
  store ptr %47, ptr %49, align 8, !tbaa !13
  br label %55

50:                                               ; preds = %18
  %51 = load ptr, ptr %5, align 8, !tbaa !7
  store ptr %51, ptr %6, align 8, !tbaa !7
  %52 = load ptr, ptr %5, align 8, !tbaa !7
  %53 = getelementptr inbounds nuw %struct.PaUtilAllocationGroupLink, ptr %52, i32 0, i32 0
  %54 = load ptr, ptr %53, align 8, !tbaa !18
  store ptr %54, ptr %5, align 8, !tbaa !7
  br label %15, !llvm.loop !24

55:                                               ; preds = %39, %15
  %56 = load ptr, ptr %4, align 8, !tbaa !3
  call void @PaUtil_FreeMemory(ptr noundef %56)
  store i32 0, ptr %7, align 4
  br label %57

57:                                               ; preds = %55, %13
  call void @llvm.lifetime.end.p0(i64 8, ptr %6) #3
  call void @llvm.lifetime.end.p0(i64 8, ptr %5) #3
  %58 = load i32, ptr %7, align 4
  switch i32 %58, label %60 [
    i32 0, label %59
    i32 1, label %59
  ]

59:                                               ; preds = %57, %57
  ret void

60:                                               ; preds = %57
  unreachable
}