; Function Attrs: nounwind uwtable
define void @PaUtil_GroupFreeMemory(ptr noundef captures(none) %0, ptr noundef %1) local_unnamed_addr #0 {
  %3 = getelementptr inbounds nuw i8, ptr %0, i64 24
  %4 = icmp eq ptr %1, null
  br i1 %4, label %17, label %.preheader

.preheader:                                       ; preds = %2, %5
  %.018.in = phi ptr [ %.018, %5 ], [ %3, %2 ]
  %.0 = phi ptr [ %.018, %5 ], [ null, %2 ]
  %.018 = load ptr, ptr %.018.in, align 8, !tbaa !19
  %.not = icmp eq ptr %.018, null
  br i1 %.not, label %.loopexit, label %5

5:                                                ; preds = %.preheader
  %6 = getelementptr inbounds nuw i8, ptr %.018, i64 8
  %7 = load ptr, ptr %6, align 8, !tbaa !3
  %8 = icmp eq ptr %7, %1
  br i1 %8, label %9, label %.preheader, !llvm.loop !20

9:                                                ; preds = %5
  %10 = getelementptr inbounds nuw i8, ptr %.018, i64 8
  %.not19 = icmp eq ptr %.0, null
  %11 = load ptr, ptr %.018, align 8, !tbaa !9
  br i1 %.not19, label %13, label %12

12:                                               ; preds = %9
  store ptr %11, ptr %.0, align 8, !tbaa !9
  br label %14

13:                                               ; preds = %9
  store ptr %11, ptr %3, align 8, !tbaa !17
  br label %14

14:                                               ; preds = %13, %12
  store ptr null, ptr %10, align 8, !tbaa !3
  %15 = getelementptr inbounds nuw i8, ptr %0, i64 16
  %16 = load ptr, ptr %15, align 8, !tbaa !16
  store ptr %16, ptr %.018, align 8, !tbaa !9
  store ptr %.018, ptr %15, align 8, !tbaa !16
  br label %.loopexit

.loopexit:                                        ; preds = %.preheader, %14
  tail call void @PaUtil_FreeMemory(ptr noundef nonnull %1) #2
  br label %17

17:                                               ; preds = %2, %.loopexit
  ret void
}